; ModuleID = '44/1124.c'
source_filename = "44/1124.c"
target datalayout = "e-m:e-p270:32:32-p271:32:32-p272:64:64-i64:64-f80:128-n8:16:32:64-S128"
target triple = "x86_64-pc-linux-gnu"

@.str = private unnamed_addr constant [3 x i8] c"%d\00", align 1
@.str.1 = private unnamed_addr constant [4 x i8] c"%d\0A\00", align 1

; Function Attrs: noinline nounwind uwtable
define dso_local i32 @main() #0 {
  %1 = alloca i32, align 4
  %2 = alloca i32, align 4
  %3 = alloca i32, align 4
  %4 = alloca i32, align 4
  store i32 0, i32* %1, align 4
  store i32 1, i32* %2, align 4
  br label %5

5:                                                ; preds = %14, %0
  %6 = load i32, i32* %2, align 4
  %7 = icmp slt i32 %6, 7
  br i1 %7, label %8, label %17

8:                                                ; preds = %5
  %9 = call i32 (i8*, ...) @__isoc99_scanf(i8* getelementptr inbounds ([3 x i8], [3 x i8]* @.str, i64 0, i64 0), i32* %3)
  %10 = load i32, i32* %3, align 4
  %11 = call i32 @fan(i32 %10)
  store i32 %11, i32* %4, align 4
  %12 = load i32, i32* %4, align 4
  %13 = call i32 (i8*, ...) @printf(i8* getelementptr inbounds ([4 x i8], [4 x i8]* @.str.1, i64 0, i64 0), i32 %12)
  br label %14

14:                                               ; preds = %8
  %15 = load i32, i32* %2, align 4
  %16 = add nsw i32 %15, 1
  store i32 %16, i32* %2, align 4
  br label %5

17:                                               ; preds = %5
  ret i32 0
}

declare dso_local i32 @__isoc99_scanf(i8*, ...) #1

; Function Attrs: noinline nounwind uwtable
define dso_local i32 @fan(i32 %0) #0 {
  %2 = alloca i32, align 4
  %3 = alloca i32, align 4
  %4 = alloca i32, align 4
  %5 = alloca i32, align 4
  %6 = alloca [1000 x i32], align 16
  %7 = alloca double, align 8
  store i32 %0, i32* %2, align 4
  store i32 0, i32* %3, align 4
  store i32 0, i32* %4, align 4
  %8 = load i32, i32* %2, align 4
  %9 = icmp eq i32 %8, 0
  br i1 %9, label %10, label %11

10:                                               ; preds = %1
  store i32 0, i32* %3, align 4
  br label %76

11:                                               ; preds = %1
  %12 = load i32, i32* %2, align 4
  %13 = icmp slt i32 %12, 0
  br i1 %13, label %14, label %17

14:                                               ; preds = %11
  store i32 1, i32* %4, align 4
  %15 = load i32, i32* %2, align 4
  %16 = sub nsw i32 0, %15
  store i32 %16, i32* %2, align 4
  br label %17

17:                                               ; preds = %14, %11
  store double 1.000000e+00, double* %7, align 8
  br label %18

18:                                               ; preds = %25, %17
  %19 = load i32, i32* %2, align 4
  %20 = sitofp i32 %19 to double
  %21 = load double, double* %7, align 8
  %22 = call double @pow(double 1.000000e+01, double %21) #3
  %23 = fcmp oge double %20, %22
  br i1 %23, label %24, label %28

24:                                               ; preds = %18
  br label %25

25:                                               ; preds = %24
  %26 = load double, double* %7, align 8
  %27 = fadd double %26, 1.000000e+00
  store double %27, double* %7, align 8
  br label %18

28:                                               ; preds = %18
  store i32 0, i32* %5, align 4
  br label %29

29:                                               ; preds = %42, %28
  %30 = load i32, i32* %5, align 4
  %31 = sitofp i32 %30 to double
  %32 = load double, double* %7, align 8
  %33 = fcmp olt double %31, %32
  br i1 %33, label %34, label %45

34:                                               ; preds = %29
  %35 = load i32, i32* %2, align 4
  %36 = srem i32 %35, 10
  %37 = load i32, i32* %5, align 4
  %38 = sext i32 %37 to i64
  %39 = getelementptr inbounds [1000 x i32], [1000 x i32]* %6, i64 0, i64 %38
  store i32 %36, i32* %39, align 4
  %40 = load i32, i32* %2, align 4
  %41 = sdiv i32 %40, 10
  store i32 %41, i32* %2, align 4
  br label %42

42:                                               ; preds = %34
  %43 = load i32, i32* %5, align 4
  %44 = add nsw i32 %43, 1
  store i32 %44, i32* %5, align 4
  br label %29

45:                                               ; preds = %29
  %46 = load double, double* %7, align 8
  %47 = fsub double %46, 1.000000e+00
  store double %47, double* %7, align 8
  store i32 0, i32* %5, align 4
  br label %48

48:                                               ; preds = %64, %45
  %49 = load double, double* %7, align 8
  %50 = fcmp oge double %49, 0.000000e+00
  br i1 %50, label %51, label %69

51:                                               ; preds = %48
  %52 = load i32, i32* %5, align 4
  %53 = sext i32 %52 to i64
  %54 = getelementptr inbounds [1000 x i32], [1000 x i32]* %6, i64 0, i64 %53
  %55 = load i32, i32* %54, align 4
  %56 = sitofp i32 %55 to double
  %57 = load double, double* %7, align 8
  %58 = call double @pow(double 1.000000e+01, double %57) #3
  %59 = fmul double %56, %58
  %60 = load i32, i32* %3, align 4
  %61 = sitofp i32 %60 to double
  %62 = fadd double %61, %59
  %63 = fptosi double %62 to i32
  store i32 %63, i32* %3, align 4
  br label %64

64:                                               ; preds = %51
  %65 = load double, double* %7, align 8
  %66 = fadd double %65, -1.000000e+00
  store double %66, double* %7, align 8
  %67 = load i32, i32* %5, align 4
  %68 = add nsw i32 %67, 1
  store i32 %68, i32* %5, align 4
  br label %48

69:                                               ; preds = %48
  %70 = load i32, i32* %4, align 4
  %71 = icmp eq i32 %70, 1
  br i1 %71, label %72, label %75

72:                                               ; preds = %69
  %73 = load i32, i32* %3, align 4
  %74 = sub nsw i32 0, %73
  store i32 %74, i32* %3, align 4
  br label %75

75:                                               ; preds = %72, %69
  br label %76

76:                                               ; preds = %75, %10
  %77 = load i32, i32* %3, align 4
  ret i32 %77
}

declare dso_local i32 @printf(i8*, ...) #1

; Function Attrs: nounwind
declare dso_local double @pow(double, double) #2


!llvm.module.flags = !{!0}
!llvm.ident = !{!1}

!0 = !{i32 1, !"wchar_size", i32 4}
!1 = !{!"clang version 10.0.0-4ubuntu1 "}
